target datalayout = "e-m:e-p270:32:32-p271:32:32-p272:64:64-i64:64-i128:128-f80:128-n8:16:32:64-S128"
target triple = "x86_64-pc-linux-gnu"

%struct.cJSON = type { ptr, ptr, ptr, i32, ptr, i32, double, ptr }

@.str = private unnamed_addr constant [1 x i8] zeroinitializer, align 1
@.str.1 = private unnamed_addr constant [7 x i8] c"/%lu%s\00", align 1

; Function Attrs: nounwind sspstrong uwtable
define internal void @encode_string_as_pointer(ptr noundef %0, ptr noundef %1) #0 {
  %3 = alloca ptr, align 8
  %4 = alloca ptr, align 8
  store ptr %0, ptr %3, align 8, !tbaa !15
  store ptr %1, ptr %4, align 8, !tbaa !15
  br label %5

5:                                                ; preds = %45, %2
  %6 = load ptr, ptr %4, align 8, !tbaa !15
  %7 = getelementptr inbounds i8, ptr %6, i64 0
  %8 = load i8, ptr %7, align 1, !tbaa !17
  %9 = zext i8 %8 to i32
  %10 = icmp ne i32 %9, 0
  br i1 %10, label %11, label %50

11:                                               ; preds = %5
  %12 = load ptr, ptr %4, align 8, !tbaa !15
  %13 = getelementptr inbounds i8, ptr %12, i64 0
  %14 = load i8, ptr %13, align 1, !tbaa !17
  %15 = zext i8 %14 to i32
  %16 = icmp eq i32 %15, 47
  br i1 %16, label %17, label %24

17:                                               ; preds = %11
  %18 = load ptr, ptr %3, align 8, !tbaa !15
  %19 = getelementptr inbounds i8, ptr %18, i64 0
  store i8 126, ptr %19, align 1, !tbaa !17
  %20 = load ptr, ptr %3, align 8, !tbaa !15
  %21 = getelementptr inbounds i8, ptr %20, i64 1
  store i8 49, ptr %21, align 1, !tbaa !17
  %22 = load ptr, ptr %3, align 8, !tbaa !15
  %23 = getelementptr inbounds nuw i8, ptr %22, i32 1
  store ptr %23, ptr %3, align 8, !tbaa !15
  br label %44

24:                                               ; preds = %11
  %25 = load ptr, ptr %4, align 8, !tbaa !15
  %26 = getelementptr inbounds i8, ptr %25, i64 0
  %27 = load i8, ptr %26, align 1, !tbaa !17
  %28 = zext i8 %27 to i32
  %29 = icmp eq i32 %28, 126
  br i1 %29, label %30, label %37

30:                                               ; preds = %24
  %31 = load ptr, ptr %3, align 8, !tbaa !15
  %32 = getelementptr inbounds i8, ptr %31, i64 0
  store i8 126, ptr %32, align 1, !tbaa !17
  %33 = load ptr, ptr %3, align 8, !tbaa !15
  %34 = getelementptr inbounds i8, ptr %33, i64 1
  store i8 48, ptr %34, align 1, !tbaa !17
  %35 = load ptr, ptr %3, align 8, !tbaa !15
  %36 = getelementptr inbounds nuw i8, ptr %35, i32 1
  store ptr %36, ptr %3, align 8, !tbaa !15
  br label %43

37:                                               ; preds = %24
  %38 = load ptr, ptr %4, align 8, !tbaa !15
  %39 = getelementptr inbounds i8, ptr %38, i64 0
  %40 = load i8, ptr %39, align 1, !tbaa !17
  %41 = load ptr, ptr %3, align 8, !tbaa !15
  %42 = getelementptr inbounds i8, ptr %41, i64 0
  store i8 %40, ptr %42, align 1, !tbaa !17
  br label %43

43:                                               ; preds = %37, %30
  br label %44

44:                                               ; preds = %43, %17
  br label %45

45:                                               ; preds = %44
  %46 = load ptr, ptr %4, align 8, !tbaa !15
  %47 = getelementptr inbounds nuw i8, ptr %46, i32 1
  store ptr %47, ptr %4, align 8, !tbaa !15
  %48 = load ptr, ptr %3, align 8, !tbaa !15
  %49 = getelementptr inbounds nuw i8, ptr %48, i32 1
  store ptr %49, ptr %3, align 8, !tbaa !15
  br label %5

50:                                               ; preds = %5
  %51 = load ptr, ptr %3, align 8, !tbaa !15
  %52 = getelementptr inbounds i8, ptr %51, i64 0
  store i8 0, ptr %52, align 1, !tbaa !17
  ret void
}

; Function Attrs: nounwind sspstrong uwtable
define internal i64 @pointer_encoded_length(ptr noundef %0) #0 {
  %2 = alloca ptr, align 8
  %3 = alloca i64, align 8
  store ptr %0, ptr %2, align 8, !tbaa !15
  call void @llvm.lifetime.start.p0(i64 8, ptr %3) #8
  store i64 0, ptr %3, align 8, !tbaa !8
  br label %4

4:                                                ; preds = %23, %1
  %5 = load ptr, ptr %2, align 8, !tbaa !15
  %6 = load i8, ptr %5, align 1, !tbaa !17
  %7 = zext i8 %6 to i32
  %8 = icmp ne i32 %7, 0
  br i1 %8, label %9, label %28

9:                                                ; preds = %4
  %10 = load ptr, ptr %2, align 8, !tbaa !15
  %11 = load i8, ptr %10, align 1, !tbaa !17
  %12 = zext i8 %11 to i32
  %13 = icmp eq i32 %12, 126
  br i1 %13, label %19, label %14

14:                                               ; preds = %9
  %15 = load ptr, ptr %2, align 8, !tbaa !15
  %16 = load i8, ptr %15, align 1, !tbaa !17
  %17 = zext i8 %16 to i32
  %18 = icmp eq i32 %17, 47
  br i1 %18, label %19, label %22

19:                                               ; preds = %14, %9
  %20 = load i64, ptr %3, align 8, !tbaa !8
  %21 = add i64 %20, 1
  store i64 %21, ptr %3, align 8, !tbaa !8
  br label %22

22:                                               ; preds = %19, %14
  br label %23

23:                                               ; preds = %22
  %24 = load ptr, ptr %2, align 8, !tbaa !15
  %25 = getelementptr inbounds nuw i8, ptr %24, i32 1
  store ptr %25, ptr %2, align 8, !tbaa !15
  %26 = load i64, ptr %3, align 8, !tbaa !8
  %27 = add i64 %26, 1
  store i64 %27, ptr %3, align 8, !tbaa !8
  br label %4

28:                                               ; preds = %4
  %29 = load i64, ptr %3, align 8, !tbaa !8
  call void @llvm.lifetime.end.p0(i64 8, ptr %3) #8
  ret i64 %29
}

; Function Attrs: nounwind sspstrong uwtable
define internal ptr @cJSONUtils_strdup(ptr noundef %0) #0 {
  %2 = alloca ptr, align 8
  %3 = alloca ptr, align 8
  %4 = alloca i64, align 8
  %5 = alloca ptr, align 8
  %6 = alloca i32, align 4
  store ptr %0, ptr %3, align 8, !tbaa !15
  call void @llvm.lifetime.start.p0(i64 8, ptr %4) #8
  store i64 0, ptr %4, align 8, !tbaa !8
  call void @llvm.lifetime.start.p0(i64 8, ptr %5) #8
  store ptr null, ptr %5, align 8, !tbaa !15
  %7 = load ptr, ptr %3, align 8, !tbaa !15
  %8 = call i64 @strlen(ptr noundef %7) #9
  %9 = add i64 %8, 1
  store i64 %9, ptr %4, align 8, !tbaa !8
  %10 = load i64, ptr %4, align 8, !tbaa !8
  %11 = call ptr @cJSON_malloc(i64 noundef %10)
  store ptr %11, ptr %5, align 8, !tbaa !15
  %12 = load ptr, ptr %5, align 8, !tbaa !15
  %13 = icmp eq ptr %12, null
  br i1 %13, label %14, label %15

14:                                               ; preds = %1
  store ptr null, ptr %2, align 8
  store i32 1, ptr %6, align 4
  br label %20

15:                                               ; preds = %1
  %16 = load ptr, ptr %5, align 8, !tbaa !15
  %17 = load ptr, ptr %3, align 8, !tbaa !15
  %18 = load i64, ptr %4, align 8, !tbaa !8
  call void @llvm.memcpy.p0.p0.i64(ptr align 1 %16, ptr align 1 %17, i64 %18, i1 false)
  %19 = load ptr, ptr %5, align 8, !tbaa !15
  store ptr %19, ptr %2, align 8
  store i32 1, ptr %6, align 4
  br label %20

20:                                               ; preds = %15, %14
  call void @llvm.lifetime.end.p0(i64 8, ptr %5) #8
  call void @llvm.lifetime.end.p0(i64 8, ptr %4) #8
  %21 = load ptr, ptr %2, align 8
  ret ptr %21
}

; Function Attrs: nounwind sspstrong uwtable
define ptr @cJSONUtils_FindPointerFromObjectTo(ptr noundef %0, ptr noundef %1) #0 {
  %3 = alloca ptr, align 8
  %4 = alloca ptr, align 8
  %5 = alloca ptr, align 8
  %6 = alloca i64, align 8
  %7 = alloca ptr, align 8
  %8 = alloca i32, align 4
  %9 = alloca ptr, align 8
  %10 = alloca ptr, align 8
  %11 = alloca ptr, align 8
  store ptr %0, ptr %4, align 8, !tbaa !3
  store ptr %1, ptr %5, align 8, !tbaa !3
  call void @llvm.lifetime.start.p0(i64 8, ptr %6) #8
  store i64 0, ptr %6, align 8, !tbaa !8
  call void @llvm.lifetime.start.p0(i64 8, ptr %7) #8
  store ptr null, ptr %7, align 8, !tbaa !3
  %12 = load ptr, ptr %4, align 8, !tbaa !3
  %13 = icmp eq ptr %12, null
  br i1 %13, label %17, label %14

14:                                               ; preds = %2
  %15 = load ptr, ptr %5, align 8, !tbaa !3
  %16 = icmp eq ptr %15, null
  br i1 %16, label %17, label %18

17:                                               ; preds = %14, %2
  store ptr null, ptr %3, align 8
  store i32 1, ptr %8, align 4
  br label %99

18:                                               ; preds = %14
  %19 = load ptr, ptr %4, align 8, !tbaa !3
  %20 = load ptr, ptr %5, align 8, !tbaa !3
  %21 = icmp eq ptr %19, %20
  br i1 %21, label %22, label %24

22:                                               ; preds = %18
  %23 = call ptr @cJSONUtils_strdup(ptr noundef @.str)
  store ptr %23, ptr %3, align 8
  store i32 1, ptr %8, align 4
  br label %99

24:                                               ; preds = %18
  %25 = load ptr, ptr %4, align 8, !tbaa !3
  %26 = getelementptr inbounds nuw %struct.cJSON, ptr %25, i32 0, i32 2
  %27 = load ptr, ptr %26, align 8, !tbaa !10
  store ptr %27, ptr %7, align 8, !tbaa !3
  br label %28

28:                                               ; preds = %92, %24
  %29 = load ptr, ptr %7, align 8, !tbaa !3
  %30 = icmp ne ptr %29, null
  br i1 %30, label %31, label %98

31:                                               ; preds = %28
  call void @llvm.lifetime.start.p0(i64 8, ptr %9) #8
  %32 = load ptr, ptr %7, align 8, !tbaa !3
  %33 = load ptr, ptr %5, align 8, !tbaa !3
  %34 = call ptr @cJSONUtils_FindPointerFromObjectTo(ptr noundef %32, ptr noundef %33)
  store ptr %34, ptr %9, align 8, !tbaa !15
  %35 = load ptr, ptr %9, align 8, !tbaa !15
  %36 = icmp ne ptr %35, null
  br i1 %36, label %37, label %88

37:                                               ; preds = %31
  %38 = load ptr, ptr %4, align 8, !tbaa !3
  %39 = call i32 @cJSON_IsArray(ptr noundef %38)
  %40 = icmp ne i32 %39, 0
  br i1 %40, label %41, label %60

41:                                               ; preds = %37
  call void @llvm.lifetime.start.p0(i64 8, ptr %10) #8
  %42 = load ptr, ptr %9, align 8, !tbaa !15
  %43 = call i64 @strlen(ptr noundef %42) #9
  %44 = add i64 %43, 20
  %45 = add i64 %44, 2
  %46 = call ptr @cJSON_malloc(i64 noundef %45)
  store ptr %46, ptr %10, align 8, !tbaa !15
  %47 = load i64, ptr %6, align 8, !tbaa !8
  %48 = icmp ugt i64 %47, -1
  br i1 %48, label %49, label %52

49:                                               ; preds = %41
  %50 = load ptr, ptr %9, align 8, !tbaa !15
  call void @cJSON_free(ptr noundef %50)
  %51 = load ptr, ptr %10, align 8, !tbaa !15
  call void @cJSON_free(ptr noundef %51)
  store ptr null, ptr %3, align 8
  store i32 1, ptr %8, align 4
  br label %59

52:                                               ; preds = %41
  %53 = load ptr, ptr %10, align 8, !tbaa !15
  %54 = load i64, ptr %6, align 8, !tbaa !8
  %55 = load ptr, ptr %9, align 8, !tbaa !15
  %56 = call i32 (ptr, ptr, ...) @sprintf(ptr noundef %53, ptr noundef @.str.1, i64 noundef %54, ptr noundef %55) #8
  %57 = load ptr, ptr %9, align 8, !tbaa !15
  call void @cJSON_free(ptr noundef %57)
  %58 = load ptr, ptr %10, align 8, !tbaa !15
  store ptr %58, ptr %3, align 8
  store i32 1, ptr %8, align 4
  br label %59

59:                                               ; preds = %52, %49
  call void @llvm.lifetime.end.p0(i64 8, ptr %10) #8
  br label %89

60:                                               ; preds = %37
  %61 = load ptr, ptr %4, align 8, !tbaa !3
  %62 = call i32 @cJSON_IsObject(ptr noundef %61)
  %63 = icmp ne i32 %62, 0
  br i1 %63, label %64, label %86

64:                                               ; preds = %60
  call void @llvm.lifetime.start.p0(i64 8, ptr %11) #8
  %65 = load ptr, ptr %9, align 8, !tbaa !15
  %66 = call i64 @strlen(ptr noundef %65) #9
  %67 = load ptr, ptr %7, align 8, !tbaa !3
  %68 = getelementptr inbounds nuw %struct.cJSON, ptr %67, i32 0, i32 7
  %69 = load ptr, ptr %68, align 8, !tbaa !16
  %70 = call i64 @pointer_encoded_length(ptr noundef %69)
  %71 = add i64 %66, %70
  %72 = add i64 %71, 2
  %73 = call ptr @cJSON_malloc(i64 noundef %72)
  store ptr %73, ptr %11, align 8, !tbaa !15
  %74 = load ptr, ptr %11, align 8, !tbaa !15
  %75 = getelementptr inbounds i8, ptr %74, i64 0
  store i8 47, ptr %75, align 1, !tbaa !17
  %76 = load ptr, ptr %11, align 8, !tbaa !15
  %77 = getelementptr inbounds i8, ptr %76, i64 1
  %78 = load ptr, ptr %7, align 8, !tbaa !3
  %79 = getelementptr inbounds nuw %struct.cJSON, ptr %78, i32 0, i32 7
  %80 = load ptr, ptr %79, align 8, !tbaa !16
  call void @encode_string_as_pointer(ptr noundef %77, ptr noundef %80)
  %81 = load ptr, ptr %11, align 8, !tbaa !15
  %82 = load ptr, ptr %9, align 8, !tbaa !15
  %83 = call ptr @strcat(ptr noundef %81, ptr noundef %82) #8
  %84 = load ptr, ptr %9, align 8, !tbaa !15
  call void @cJSON_free(ptr noundef %84)
  %85 = load ptr, ptr %11, align 8, !tbaa !15
  store ptr %85, ptr %3, align 8
  store i32 1, ptr %8, align 4
  call void @llvm.lifetime.end.p0(i64 8, ptr %11) #8
  br label %89

86:                                               ; preds = %60
  %87 = load ptr, ptr %9, align 8, !tbaa !15
  call void @cJSON_free(ptr noundef %87)
  store ptr null, ptr %3, align 8
  store i32 1, ptr %8, align 4
  br label %89

88:                                               ; preds = %31
  store i32 0, ptr %8, align 4
  br label %89

89:                                               ; preds = %88, %86, %64, %59
  call void @llvm.lifetime.end.p0(i64 8, ptr %9) #8
  %90 = load i32, ptr %8, align 4
  switch i32 %90, label %99 [
    i32 0, label %91
  ]

91:                                               ; preds = %89
  br label %92

92:                                               ; preds = %91
  %93 = load ptr, ptr %7, align 8, !tbaa !3
  %94 = getelementptr inbounds nuw %struct.cJSON, ptr %93, i32 0, i32 0
  %95 = load ptr, ptr %94, align 8, !tbaa !18
  store ptr %95, ptr %7, align 8, !tbaa !3
  %96 = load i64, ptr %6, align 8, !tbaa !8
  %97 = add i64 %96, 1
  store i64 %97, ptr %6, align 8, !tbaa !8
  br label %28

98:                                               ; preds = %28
  store ptr null, ptr %3, align 8
  store i32 1, ptr %8, align 4
  br label %99

99:                                               ; preds = %98, %89, %22, %17
  call void @llvm.lifetime.end.p0(i64 8, ptr %7) #8
  call void @llvm.lifetime.end.p0(i64 8, ptr %6) #8
  %100 = load ptr, ptr %3, align 8
  ret ptr %100
}