; Function Attrs: nounwind sspstrong uwtable
define ptr @cJSONUtils_FindPointerFromObjectTo(ptr noundef %0, ptr noundef %1) local_unnamed_addr #0 {
  %3 = icmp eq ptr %0, null
  %4 = icmp eq ptr %1, null
  %or.cond = or i1 %3, %4
  br i1 %or.cond, label %cJSONUtils_strdup.exit, label %5

5:                                                ; preds = %2
  %6 = icmp eq ptr %0, %1
  br i1 %6, label %7, label %11

7:                                                ; preds = %5
  %8 = tail call ptr @cJSON_malloc(i64 noundef 1) #13
  %9 = icmp eq ptr %8, null
  br i1 %9, label %cJSONUtils_strdup.exit, label %10

10:                                               ; preds = %7
  store i8 0, ptr %8, align 1
  br label %cJSONUtils_strdup.exit

11:                                               ; preds = %5
  %12 = getelementptr inbounds nuw i8, ptr %0, i64 16
  %.03549 = load ptr, ptr %12, align 8, !tbaa !3
  %.not50 = icmp eq ptr %.03549, null
  br i1 %.not50, label %cJSONUtils_strdup.exit, label %.lr.ph

.lr.ph:                                           ; preds = %11, %49
  %.03552 = phi ptr [ %.035, %49 ], [ %.03549, %11 ]
  %.03451 = phi i64 [ %50, %49 ], [ 0, %11 ]
  %13 = tail call ptr @cJSONUtils_FindPointerFromObjectTo(ptr noundef nonnull %.03552, ptr noundef %1)
  %.not41 = icmp eq ptr %13, null
  br i1 %.not41, label %49, label %14

14:                                               ; preds = %.lr.ph
  %15 = tail call i32 @cJSON_IsArray(ptr noundef %0) #13
  %.not42 = icmp eq i32 %15, 0
  br i1 %.not42, label %21, label %16

16:                                               ; preds = %14
  %17 = tail call i64 @strlen(ptr noundef nonnull dereferenceable(1) %13) #14
  %18 = add i64 %17, 22
  %19 = tail call ptr @cJSON_malloc(i64 noundef %18) #13
  %20 = tail call i32 (ptr, ptr, ...) @sprintf(ptr noundef nonnull dereferenceable(1) %19, ptr noundef nonnull dereferenceable(1) @.str.1, i64 noundef %.03451, ptr noundef nonnull %13) #13
  tail call void @cJSON_free(ptr noundef nonnull %13) #13
  br label %cJSONUtils_strdup.exit

21:                                               ; preds = %14
  %22 = tail call i32 @cJSON_IsObject(ptr noundef %0) #13
  %.not43 = icmp eq i32 %22, 0
  br i1 %.not43, label %48, label %23

23:                                               ; preds = %21
  %24 = tail call i64 @strlen(ptr noundef nonnull dereferenceable(1) %13) #14
  %25 = getelementptr inbounds nuw i8, ptr %.03552, i64 56
  %26 = load ptr, ptr %25, align 8, !tbaa !8
  br label %27

27:                                               ; preds = %31, %23
  %.06.i = phi ptr [ %26, %23 ], [ %32, %31 ]
  %.0.i = phi i64 [ 0, %23 ], [ %33, %31 ]
  %28 = load i8, ptr %.06.i, align 1, !tbaa !13
  switch i8 %28, label %31 [
    i8 0, label %pointer_encoded_length.exit
    i8 126, label %29
    i8 47, label %29
  ]

29:                                               ; preds = %27, %27
  %30 = add i64 %.0.i, 1
  br label %31

31:                                               ; preds = %29, %27
  %.1.i = phi i64 [ %30, %29 ], [ %.0.i, %27 ]
  %32 = getelementptr inbounds nuw i8, ptr %.06.i, i64 1
  %33 = add i64 %.1.i, 1
  br label %27

pointer_encoded_length.exit:                      ; preds = %27
  %34 = add i64 %24, 2
  %35 = add i64 %34, %.0.i
  %36 = tail call ptr @cJSON_malloc(i64 noundef %35) #13
  store i8 47, ptr %36, align 1, !tbaa !13
  %37 = load ptr, ptr %25, align 8, !tbaa !8
  br label %38

38:                                               ; preds = %45, %pointer_encoded_length.exit
  %.pn = phi ptr [ %36, %pointer_encoded_length.exit ], [ %.1.i45, %45 ]
  %.0.i44 = phi ptr [ %37, %pointer_encoded_length.exit ], [ %46, %45 ]
  %.014.i = getelementptr inbounds nuw i8, ptr %.pn, i64 1
  %39 = load i8, ptr %.0.i44, align 1, !tbaa !13
  switch i8 %39, label %44 [
    i8 0, label %encode_string_as_pointer.exit
    i8 47, label %40
    i8 126, label %42
  ]

40:                                               ; preds = %38
  store i8 126, ptr %.014.i, align 1, !tbaa !13
  %41 = getelementptr inbounds nuw i8, ptr %.pn, i64 2
  store i8 49, ptr %41, align 1, !tbaa !13
  br label %45

42:                                               ; preds = %38
  store i8 126, ptr %.014.i, align 1, !tbaa !13
  %43 = getelementptr inbounds nuw i8, ptr %.pn, i64 2
  store i8 48, ptr %43, align 1, !tbaa !13
  br label %45

44:                                               ; preds = %38
  store i8 %39, ptr %.014.i, align 1, !tbaa !13
  br label %45

45:                                               ; preds = %44, %42, %40
  %.1.i45 = phi ptr [ %41, %40 ], [ %43, %42 ], [ %.014.i, %44 ]
  %46 = getelementptr inbounds nuw i8, ptr %.0.i44, i64 1
  br label %38

encode_string_as_pointer.exit:                    ; preds = %38
  store i8 0, ptr %.014.i, align 1, !tbaa !13
  %47 = tail call ptr @strcat(ptr noundef nonnull dereferenceable(1) %36, ptr noundef nonnull dereferenceable(1) %13) #13
  tail call void @cJSON_free(ptr noundef nonnull %13) #13
  br label %cJSONUtils_strdup.exit

48:                                               ; preds = %21
  tail call void @cJSON_free(ptr noundef nonnull %13) #13
  br label %cJSONUtils_strdup.exit

49:                                               ; preds = %.lr.ph
  %50 = add i64 %.03451, 1
  %.035 = load ptr, ptr %.03552, align 8, !tbaa !3
  %.not = icmp eq ptr %.035, null
  br i1 %.not, label %cJSONUtils_strdup.exit, label %.lr.ph

cJSONUtils_strdup.exit:                           ; preds = %49, %11, %16, %encode_string_as_pointer.exit, %48, %10, %7, %2
  %.0 = phi ptr [ null, %2 ], [ null, %7 ], [ %8, %10 ], [ null, %48 ], [ %36, %encode_string_as_pointer.exit ], [ %19, %16 ], [ null, %11 ], [ null, %49 ]
  ret ptr %.0
}